; Function Attrs: nounwind uwtable
define void @Abc_NodeCollectFanouts(ptr noundef readonly captures(none) %0, ptr noundef captures(none) initializes((4, 8)) %1) local_unnamed_addr #0 {
  %3 = getelementptr inbounds nuw i8, ptr %1, i64 4
  store i32 0, ptr %3, align 4
  %4 = getelementptr i8, ptr %0, i64 44
  %.val9 = load i32, ptr %4, align 4
  %5 = icmp sgt i32 %.val9, 0
  br i1 %5, label %.lr.ph, label %.critedge

.lr.ph:                                           ; preds = %2
  %6 = getelementptr i8, ptr %0, i64 48
  %.phi.trans.insert.i = getelementptr inbounds nuw i8, ptr %1, i64 8
  br label %7

7:                                                ; preds = %.lr.ph, %Vec_PtrPush.exit
  %indvars.iv = phi i64 [ 0, %.lr.ph ], [ %indvars.iv.next, %Vec_PtrPush.exit ]
  %.val7 = load ptr, ptr %0, align 8
  %.val8 = load ptr, ptr %6, align 8
  %8 = getelementptr i8, ptr %.val7, i64 32
  %.val7.val = load ptr, ptr %8, align 8
  %9 = getelementptr i8, ptr %.val7.val, i64 8
  %.val7.val.val = load ptr, ptr %9, align 8
  %10 = getelementptr inbounds nuw i32, ptr %.val8, i64 %indvars.iv
  %11 = load i32, ptr %10, align 4
  %12 = sext i32 %11 to i64
  %13 = getelementptr inbounds ptr, ptr %.val7.val.val, i64 %12
  %14 = load ptr, ptr %13, align 8
  %15 = load i32, ptr %3, align 4
  %16 = load i32, ptr %1, align 8
  %17 = icmp eq i32 %15, %16
  br i1 %17, label %18, label %.Vec_PtrGrow.exit11_crit_edge.i

.Vec_PtrGrow.exit11_crit_edge.i:                  ; preds = %7
  %.pre.i = load ptr, ptr %.phi.trans.insert.i, align 8
  br label %Vec_PtrPush.exit

18:                                               ; preds = %7
  %19 = icmp slt i32 %15, 16
  br i1 %19, label %20, label %27

20:                                               ; preds = %18
  %21 = load ptr, ptr %.phi.trans.insert.i, align 8
  %.not9.i.i = icmp eq ptr %21, null
  br i1 %.not9.i.i, label %24, label %22

22:                                               ; preds = %20
  %23 = tail call dereferenceable_or_null(128) ptr @realloc(ptr noundef nonnull %21, i64 noundef 128) #29
  br label %Vec_PtrGrow.exit.i

24:                                               ; preds = %20
  %25 = tail call noalias dereferenceable_or_null(128) ptr @malloc(i64 noundef 128) #30
  br label %Vec_PtrGrow.exit.i

Vec_PtrGrow.exit.i:                               ; preds = %24, %22
  %26 = phi ptr [ %23, %22 ], [ %25, %24 ]
  store ptr %26, ptr %.phi.trans.insert.i, align 8
  store i32 16, ptr %1, align 8
  br label %Vec_PtrPush.exit

27:                                               ; preds = %18
  %28 = shl nuw nsw i32 %15, 1
  %29 = load ptr, ptr %.phi.trans.insert.i, align 8
  %.not9.i10.i = icmp eq ptr %29, null
  %30 = zext nneg i32 %28 to i64
  %31 = shl nuw nsw i64 %30, 3
  br i1 %.not9.i10.i, label %34, label %32

32:                                               ; preds = %27
  %33 = tail call ptr @realloc(ptr noundef nonnull %29, i64 noundef %31) #29
  br label %36

34:                                               ; preds = %27
  %35 = tail call noalias ptr @malloc(i64 noundef %31) #30
  br label %36

36:                                               ; preds = %34, %32
  %37 = phi ptr [ %33, %32 ], [ %35, %34 ]
  store ptr %37, ptr %.phi.trans.insert.i, align 8
  store i32 %28, ptr %1, align 8
  br label %Vec_PtrPush.exit

Vec_PtrPush.exit:                                 ; preds = %.Vec_PtrGrow.exit11_crit_edge.i, %Vec_PtrGrow.exit.i, %36
  %38 = phi ptr [ %.pre.i, %.Vec_PtrGrow.exit11_crit_edge.i ], [ %37, %36 ], [ %26, %Vec_PtrGrow.exit.i ]
  %39 = load i32, ptr %3, align 4
  %40 = add nsw i32 %39, 1
  store i32 %40, ptr %3, align 4
  %41 = sext i32 %39 to i64
  %42 = getelementptr inbounds ptr, ptr %38, i64 %41
  store ptr %14, ptr %42, align 8
  %indvars.iv.next = add nuw nsw i64 %indvars.iv, 1
  %.val = load i32, ptr %4, align 4
  %43 = sext i32 %.val to i64
  %44 = icmp slt i64 %indvars.iv.next, %43
  br i1 %44, label %7, label %.critedge, !llvm.loop !71

.critedge:                                        ; preds = %Vec_PtrPush.exit, %2
  ret void
}